target datalayout = "e-m:e-p270:32:32-p271:32:32-p272:64:64-i64:64-i128:128-f80:128-n8:16:32:64-S128"
target triple = "x86_64-pc-linux-gnu"

@saved_errno = internal global i32 0, align 4

; Function Attrs: nounwind uwtable
define internal i32 @restore_errno() #0 {
  %1 = alloca i32, align 4
  call void @llvm.lifetime.start.p0(i64 4, ptr %1) #7
  %2 = call ptr @__errno_location() #9
  %3 = load i32, ptr %2, align 4, !tbaa !13
  store i32 %3, ptr %1, align 4, !tbaa !13
  %4 = load i32, ptr @saved_errno, align 4, !tbaa !13
  %5 = call ptr @__errno_location() #9
  store i32 %4, ptr %5, align 4, !tbaa !13
  %6 = load i32, ptr %1, align 4, !tbaa !13
  call void @llvm.lifetime.end.p0(i64 4, ptr %1) #7
  ret i32 %6
}

; Function Attrs: nounwind uwtable
define internal void @save_errno() #0 {
  %1 = call ptr @__errno_location() #9
  %2 = load i32, ptr %1, align 4, !tbaa !13
  store i32 %2, ptr @saved_errno, align 4, !tbaa !13
  ret void
}

; Function Attrs: nounwind uwtable
define internal i64 @checked_uint8(ptr noundef %0, ptr noundef %1) #0 {
  %3 = alloca i64, align 8
  %4 = alloca ptr, align 8
  %5 = alloca ptr, align 8
  %6 = alloca ptr, align 8
  %7 = alloca ptr, align 8
  %8 = alloca ptr, align 8
  %9 = alloca i64, align 8
  %10 = alloca i32, align 4
  %11 = alloca i32, align 4
  store ptr %0, ptr %4, align 8, !tbaa !4
  store ptr %1, ptr %5, align 8, !tbaa !38
  call void @llvm.lifetime.start.p0(i64 8, ptr %6) #7
  %12 = load ptr, ptr %5, align 8, !tbaa !38
  store ptr %12, ptr %6, align 8, !tbaa !4
  call void @llvm.lifetime.start.p0(i64 8, ptr %7) #7
  %13 = load ptr, ptr %4, align 8, !tbaa !4
  store ptr %13, ptr %7, align 8, !tbaa !4
  call void @llvm.lifetime.start.p0(i64 8, ptr %8) #7
  call void @llvm.lifetime.start.p0(i64 8, ptr %9) #7
  call void @llvm.lifetime.start.p0(i64 4, ptr %10) #7
  call void @save_errno()
  %14 = load ptr, ptr %7, align 8, !tbaa !4
  %15 = call i64 @strtol(ptr noundef %14, ptr noundef %8, i32 noundef 10) #7
  store i64 %15, ptr %9, align 8, !tbaa !29
  %16 = call i32 @restore_errno()
  store i32 %16, ptr %10, align 4, !tbaa !13
  %17 = load i64, ptr %9, align 8, !tbaa !29
  %18 = icmp eq i64 %17, -9223372036854775808
  br i1 %18, label %22, label %19

19:                                               ; preds = %2
  %20 = load i64, ptr %9, align 8, !tbaa !29
  %21 = icmp eq i64 %20, 9223372036854775807
  br i1 %21, label %22, label %25

22:                                               ; preds = %19, %2
  %23 = load i32, ptr %10, align 4, !tbaa !13
  %24 = icmp eq i32 %23, 34
  br i1 %24, label %48, label %25

25:                                               ; preds = %22, %19
  %26 = load ptr, ptr %8, align 8, !tbaa !4
  %27 = load ptr, ptr %7, align 8, !tbaa !4
  %28 = icmp eq ptr %26, %27
  br i1 %28, label %48, label %29

29:                                               ; preds = %25
  %30 = call ptr @__ctype_b_loc() #9
  %31 = load ptr, ptr %30, align 8, !tbaa !23
  %32 = load ptr, ptr %8, align 8, !tbaa !4
  %33 = load i8, ptr %32, align 1, !tbaa !15
  %34 = zext i8 %33 to i32
  %35 = sext i32 %34 to i64
  %36 = getelementptr inbounds i16, ptr %31, i64 %35
  %37 = load i16, ptr %36, align 2, !tbaa !25
  %38 = zext i16 %37 to i32
  %39 = and i32 %38, 8192
  %40 = icmp ne i32 %39, 0
  br i1 %40, label %41, label %48

41:                                               ; preds = %29
  %42 = load i64, ptr %9, align 8, !tbaa !29
  %43 = load i64, ptr %9, align 8, !tbaa !29
  %44 = trunc i64 %43 to i8
  %45 = load ptr, ptr %6, align 8, !tbaa !4
  store i8 %44, ptr %45, align 1, !tbaa !15
  %46 = zext i8 %44 to i64
  %47 = icmp ne i64 %42, %46
  br i1 %47, label %48, label %49

48:                                               ; preds = %41, %29, %25, %22
  store i64 -1, ptr %3, align 8
  store i32 1, ptr %11, align 4
  br label %73

49:                                               ; preds = %41
  %50 = load ptr, ptr %8, align 8, !tbaa !4
  store ptr %50, ptr %7, align 8, !tbaa !4
  br label %51

51:                                               ; preds = %64, %49
  %52 = call ptr @__ctype_b_loc() #9
  %53 = load ptr, ptr %52, align 8, !tbaa !23
  %54 = load ptr, ptr %7, align 8, !tbaa !4
  %55 = load i8, ptr %54, align 1, !tbaa !15
  %56 = zext i8 %55 to i32
  %57 = sext i32 %56 to i64
  %58 = getelementptr inbounds i16, ptr %53, i64 %57
  %59 = load i16, ptr %58, align 2, !tbaa !25
  %60 = zext i16 %59 to i32
  %61 = and i32 %60, 8192
  %62 = icmp ne i32 %61, 0
  br i1 %62, label %63, label %67

63:                                               ; preds = %51
  br label %64

64:                                               ; preds = %63
  %65 = load ptr, ptr %7, align 8, !tbaa !4
  %66 = getelementptr inbounds nuw i8, ptr %65, i32 1
  store ptr %66, ptr %7, align 8, !tbaa !4
  br label %51, !llvm.loop !46

67:                                               ; preds = %51
  %68 = load ptr, ptr %7, align 8, !tbaa !4
  %69 = load ptr, ptr %4, align 8, !tbaa !4
  %70 = ptrtoint ptr %68 to i64
  %71 = ptrtoint ptr %69 to i64
  %72 = sub i64 %70, %71
  store i64 %72, ptr %3, align 8
  store i32 1, ptr %11, align 4
  br label %73

73:                                               ; preds = %67, %48
  call void @llvm.lifetime.end.p0(i64 4, ptr %10) #7
  call void @llvm.lifetime.end.p0(i64 8, ptr %9) #7
  call void @llvm.lifetime.end.p0(i64 8, ptr %8) #7
  call void @llvm.lifetime.end.p0(i64 8, ptr %7) #7
  call void @llvm.lifetime.end.p0(i64 8, ptr %6) #7
  %74 = load i64, ptr %3, align 8
  ret i64 %74
}