; Function Attrs: nofree nounwind uwtable
define internal noundef i64 @checked_uint8(ptr noundef %0, ptr noundef writeonly captures(none) %1) #7 {
  %3 = alloca ptr, align 8
  call void @llvm.lifetime.start.p0(i64 8, ptr nonnull %3) #9
  %4 = tail call ptr @__errno_location() #10
  %5 = load i32, ptr %4, align 4, !tbaa !12
  store i32 %5, ptr @saved_errno, align 4, !tbaa !12
  %6 = call i64 @strtol(ptr noundef %0, ptr noundef nonnull %3, i32 noundef 10) #9
  %7 = load i32, ptr %4, align 4, !tbaa !12
  %8 = load i32, ptr @saved_errno, align 4, !tbaa !12
  store i32 %8, ptr %4, align 4, !tbaa !12
  %9 = add i64 %6, -9223372036854775807
  %or.cond = icmp ult i64 %9, 2
  %10 = icmp eq i32 %7, 34
  %or.cond3 = select i1 %or.cond, i1 %10, i1 false
  br i1 %or.cond3, label %36, label %11

11:                                               ; preds = %2
  %12 = load ptr, ptr %3, align 8, !tbaa !4
  %13 = icmp eq ptr %12, %0
  br i1 %13, label %36, label %14

14:                                               ; preds = %11
  %15 = tail call ptr @__ctype_b_loc() #10
  %16 = load ptr, ptr %15, align 8, !tbaa !14
  %17 = load i8, ptr %12, align 1, !tbaa !9
  %18 = zext i8 %17 to i64
  %19 = getelementptr inbounds nuw i16, ptr %16, i64 %18
  %20 = load i16, ptr %19, align 2, !tbaa !16
  %21 = and i16 %20, 8192
  %.not = icmp eq i16 %21, 0
  br i1 %.not, label %36, label %22

22:                                               ; preds = %14
  %23 = trunc i64 %6 to i8
  store i8 %23, ptr %1, align 1, !tbaa !9
  %.not20 = icmp ult i64 %6, 256
  br i1 %.not20, label %.preheader, label %36

.preheader:                                       ; preds = %22
  %24 = load ptr, ptr %15, align 8, !tbaa !14
  br label %25

25:                                               ; preds = %25, %.preheader
  %.017 = phi ptr [ %31, %25 ], [ %12, %.preheader ]
  %26 = load i8, ptr %.017, align 1, !tbaa !9
  %27 = zext i8 %26 to i64
  %28 = getelementptr inbounds nuw i16, ptr %24, i64 %27
  %29 = load i16, ptr %28, align 2, !tbaa !16
  %30 = and i16 %29, 8192
  %.not21 = icmp eq i16 %30, 0
  %31 = getelementptr inbounds nuw i8, ptr %.017, i64 1
  br i1 %.not21, label %32, label %25, !llvm.loop !30

32:                                               ; preds = %25
  %33 = ptrtoint ptr %.017 to i64
  %34 = ptrtoint ptr %0 to i64
  %35 = sub i64 %33, %34
  br label %36

36:                                               ; preds = %11, %14, %22, %2, %32
  %.0 = phi i64 [ %35, %32 ], [ -1, %2 ], [ -1, %22 ], [ -1, %14 ], [ -1, %11 ]
  call void @llvm.lifetime.end.p0(i64 8, ptr nonnull %3) #9
  ret i64 %.0
}